target datalayout = "e-m:e-p270:32:32-p271:32:32-p272:64:64-i64:64-i128:128-f80:128-n8:16:32:64-S128"
target triple = "x86_64-pc-linux-gnu"

%"class.std::__weak_count" = type { ptr }
%"struct.std::atomic.6" = type { %"struct.std::__atomic_base.7" }
%"struct.std::__atomic_base.7" = type { i8 }
%"class.duckdb::enable_shared_from_this" = type { %"class.duckdb::weak_ptr" }
%"class.duckdb::weak_ptr" = type { %"class.std::weak_ptr" }
%"class.std::weak_ptr" = type { %"class.std::__weak_ptr" }
%"class.std::__weak_ptr" = type { ptr, %"class.std::__weak_count" }
%"struct.std::atomic" = type { %"struct.std::__atomic_base" }
%"struct.std::__atomic_base" = type { i64 }
%"class.duckdb::vector" = type { %"class.std::vector" }
%"class.std::vector" = type { %"struct.std::_Vector_base" }
%"struct.std::_Vector_base" = type { %"struct.std::_Vector_base<duckdb::weak_ptr<duckdb::Event>, std::allocator<duckdb::weak_ptr<duckdb::Event>>>::_Vector_impl" }
%"struct.std::_Vector_base<duckdb::weak_ptr<duckdb::Event>, std::allocator<duckdb::weak_ptr<duckdb::Event>>>::_Vector_impl" = type { %"struct.std::_Vector_base<duckdb::weak_ptr<duckdb::Event>, std::allocator<duckdb::weak_ptr<duckdb::Event>>>::_Vector_impl_data" }
%"struct.std::_Vector_base<duckdb::weak_ptr<duckdb::Event>, std::allocator<duckdb::weak_ptr<duckdb::Event>>>::_Vector_impl_data" = type { ptr, ptr, ptr }
%"class.duckdb::vector.0" = type { %"class.std::vector.1" }
%"class.std::vector.1" = type { %"struct.std::_Vector_base.2" }
%"struct.std::_Vector_base.2" = type { %"struct.std::_Vector_base<std::reference_wrapper<duckdb::Event>, std::allocator<std::reference_wrapper<duckdb::Event>>>::_Vector_impl" }
%"struct.std::_Vector_base<std::reference_wrapper<duckdb::Event>, std::allocator<std::reference_wrapper<duckdb::Event>>>::_Vector_impl" = type { %"struct.std::_Vector_base<std::reference_wrapper<duckdb::Event>, std::allocator<std::reference_wrapper<duckdb::Event>>>::_Vector_impl_data" }
%"struct.std::_Vector_base<std::reference_wrapper<duckdb::Event>, std::allocator<std::reference_wrapper<duckdb::Event>>>::_Vector_impl_data" = type { ptr, ptr, ptr }
%"class.duckdb::Event" = type <{ ptr, %"class.duckdb::enable_shared_from_this", ptr, %"struct.std::atomic", %"struct.std::atomic", %"struct.std::atomic", i64, %"class.duckdb::vector", %"class.duckdb::vector.0", %"struct.std::atomic.6", [7 x i8] }>

; Function Attrs: mustprogress nounwind uwtable
define linkonce_odr noundef i32 @_ZStanSt12memory_orderSt23__memory_order_modifier(i32 noundef %0, i32 noundef %1) #1 comdat {
  %3 = alloca i32, align 4
  %4 = alloca i32, align 4
  store i32 %0, ptr %3, align 4, !tbaa !656
  store i32 %1, ptr %4, align 4, !tbaa !1874
  %5 = load i32, ptr %3, align 4, !tbaa !656
  %6 = load i32, ptr %4, align 4, !tbaa !1874
  %7 = and i32 %5, %6
  ret i32 %7
}

; Function Attrs: alwaysinline mustprogress nounwind uwtable
define linkonce_odr noundef i64 @_ZNKSt13__atomic_baseImE4loadESt12memory_order(ptr noundef nonnull align 8 dereferenceable(8) %0, i32 noundef %1) #11 comdat align 2 {
  %3 = alloca ptr, align 8
  %4 = alloca i32, align 4
  %5 = alloca i32, align 4
  %6 = alloca i64, align 8
  store ptr %0, ptr %3, align 8, !tbaa !626
  store i32 %1, ptr %4, align 4, !tbaa !656
  %7 = load ptr, ptr %3, align 8
  call void @llvm.lifetime.start.p0(i64 4, ptr %5) #24
  %8 = load i32, ptr %4, align 4, !tbaa !656
  %9 = call noundef i32 @_ZStanSt12memory_orderSt23__memory_order_modifier(i32 noundef %8, i32 noundef 65535)
  store i32 %9, ptr %5, align 4, !tbaa !656
  br label %10

10:                                               ; preds = %2
  br label %11

11:                                               ; preds = %10
  br label %12

12:                                               ; preds = %11
  br label %13

13:                                               ; preds = %12
  br label %14

14:                                               ; preds = %13
  br label %15

15:                                               ; preds = %14
  %16 = getelementptr inbounds nuw %"struct.std::__atomic_base", ptr %7, i32 0, i32 0
  %17 = load i32, ptr %4, align 4, !tbaa !656
  switch i32 %17, label %18 [
    i32 1, label %20
    i32 2, label %20
    i32 5, label %22
  ]

18:                                               ; preds = %15
  %19 = load atomic i64, ptr %16 monotonic, align 8
  store i64 %19, ptr %6, align 8
  br label %24

20:                                               ; preds = %15, %15
  %21 = load atomic i64, ptr %16 acquire, align 8
  store i64 %21, ptr %6, align 8
  br label %24

22:                                               ; preds = %15
  %23 = load atomic i64, ptr %16 seq_cst, align 8
  store i64 %23, ptr %6, align 8
  br label %24

24:                                               ; preds = %22, %20, %18
  %25 = load i64, ptr %6, align 8, !tbaa !150
  call void @llvm.lifetime.end.p0(i64 4, ptr %5) #24
  ret i64 %25
}

; Function Attrs: mustprogress nounwind uwtable
define linkonce_odr noundef i64 @_ZNSt13__atomic_baseImEppEv(ptr noundef nonnull align 8 dereferenceable(8) %0) #1 comdat align 2 {
  %2 = alloca ptr, align 8
  %3 = alloca i64, align 8
  %4 = alloca i64, align 8
  store ptr %0, ptr %2, align 8, !tbaa !626
  %5 = load ptr, ptr %2, align 8
  %6 = getelementptr inbounds nuw %"struct.std::__atomic_base", ptr %5, i32 0, i32 0
  store i64 1, ptr %3, align 8, !tbaa !150
  %7 = load i64, ptr %3, align 8
  %8 = atomicrmw add ptr %6, i64 %7 seq_cst, align 8
  %9 = add i64 %8, %7
  store i64 %9, ptr %4, align 8
  %10 = load i64, ptr %4, align 8, !tbaa !150
  ret i64 %10
}

; Function Attrs: mustprogress nounwind uwtable
define linkonce_odr noundef i64 @_ZNKSt13__atomic_baseImEcvmEv(ptr noundef nonnull align 8 dereferenceable(8) %0) #1 comdat align 2 {
  %2 = alloca ptr, align 8
  store ptr %0, ptr %2, align 8, !tbaa !626
  %3 = load ptr, ptr %2, align 8
  %4 = call noundef i64 @_ZNKSt13__atomic_baseImE4loadESt12memory_order(ptr noundef nonnull align 8 dereferenceable(8) %3, i32 noundef 5) #24
  ret i64 %4
}

; Function Attrs: mustprogress uwtable
define void @_ZN6duckdb5Event10FinishTaskEv(ptr noundef nonnull align 8 dereferenceable(113) %0) #0 align 2 {
  %2 = alloca ptr, align 8
  %3 = alloca i64, align 8
  %4 = alloca i64, align 8
  store ptr %0, ptr %2, align 8, !tbaa !60
  %5 = load ptr, ptr %2, align 8
  call void @llvm.lifetime.start.p0(i64 8, ptr %3) #24
  %6 = getelementptr inbounds nuw %"class.duckdb::Event", ptr %5, i32 0, i32 4
  %7 = call noundef i64 @_ZNKSt13__atomic_baseImEcvmEv(ptr noundef nonnull align 8 dereferenceable(8) %6) #24
  store i64 %7, ptr %3, align 8, !tbaa !150
  call void @llvm.lifetime.start.p0(i64 8, ptr %4) #24
  %8 = getelementptr inbounds nuw %"class.duckdb::Event", ptr %5, i32 0, i32 3
  %9 = call noundef i64 @_ZNSt13__atomic_baseImEppEv(ptr noundef nonnull align 8 dereferenceable(8) %8) #24
  store i64 %9, ptr %4, align 8, !tbaa !150
  %10 = load i64, ptr %4, align 8, !tbaa !150
  %11 = load i64, ptr %3, align 8, !tbaa !150
  %12 = icmp eq i64 %10, %11
  br i1 %12, label %13, label %14

13:                                               ; preds = %1
  call void @_ZN6duckdb5Event6FinishEv(ptr noundef nonnull align 8 dereferenceable(113) %5)
  br label %14

14:                                               ; preds = %13, %1
  call void @llvm.lifetime.end.p0(i64 8, ptr %4) #24
  call void @llvm.lifetime.end.p0(i64 8, ptr %3) #24
  ret void
}