; Function Attrs: mustprogress uwtable
define void @_ZN6duckdb5Event10FinishTaskEv(ptr noundef nonnull align 8 dereferenceable(113) %0) local_unnamed_addr #0 align 2 {
  %2 = getelementptr inbounds nuw i8, ptr %0, i64 40
  %3 = load atomic i64, ptr %2 seq_cst, align 8
  %4 = getelementptr inbounds nuw i8, ptr %0, i64 32
  %5 = atomicrmw add ptr %4, i64 1 seq_cst, align 8
  %6 = add i64 %5, 1
  %7 = icmp eq i64 %6, %3
  br i1 %7, label %8, label %9

8:                                                ; preds = %1
  tail call void @_ZN6duckdb5Event6FinishEv(ptr noundef nonnull align 8 dereferenceable(113) %0)
  br label %9

9:                                                ; preds = %8, %1
  ret void
}